ARM GAS  C:\Users\ILYNGK~1\AppData\Local\Temp\ccT22LWP.s 			page 1


   1              		.syntax unified
   2              		.cpu cortex-m3
   3              		.fpu softvfp
   4              		.eabi_attribute 20, 1
   5              		.eabi_attribute 21, 1
   6              		.eabi_attribute 23, 3
   7              		.eabi_attribute 24, 1
   8              		.eabi_attribute 25, 1
   9              		.eabi_attribute 26, 1
  10              		.eabi_attribute 30, 6
  11              		.eabi_attribute 34, 1
  12              		.eabi_attribute 18, 4
  13              		.thumb
  14              		.file	"main.c"
  15              		.text
  16              	.Ltext0:
  17              		.cfi_sections	.debug_frame
  18              		.global	mouseData
  19              		.bss
  20              		.align	2
  21              		.type	mouseData, %object
  22              		.size	mouseData, 3
  23              	mouseData:
  24 0000 000000   		.space	3
  25              		.global	bSNstring
  26 0003 00       		.data
  27              		.align	2
  28              		.type	bSNstring, %object
  29              		.size	bSNstring, 16
  30              	bSNstring:
  31 0000 0E       		.byte	14
  32 0001 03       		.byte	3
  33 0002 46       		.byte	70
  34 0003 00       		.byte	0
  35 0004 57       		.byte	87
  36 0005 00       		.byte	0
  37 0006 53       		.byte	83
  38 0007 00       		.byte	0
  39 0008 4E       		.byte	78
  40 0009 00       		.byte	0
  41 000a 30       		.byte	48
  42 000b 00       		.byte	0
  43 000c 31       		.byte	49
  44 000d 00       		.byte	0
  45 000e 0000     		.space	2
  46              		.section	.text.main,"ax",%progbits
  47              		.align	2
  48              		.global	main
  49              		.thumb
  50              		.thumb_func
  51              		.type	main, %function
  52              	main:
  53              	.LFB63:
  54              		.file 1 "main.c"
   1:main.c        **** /*******************************************************************************
   2:main.c        **** * File Name: main.c
   3:main.c        **** *
ARM GAS  C:\Users\ILYNGK~1\AppData\Local\Temp\ccT22LWP.s 			page 2


   4:main.c        **** * Version: 3.0
   5:main.c        **** *
   6:main.c        **** * Description:
   7:main.c        **** *  This code example demonstrates USB HID interface class operation by 
   8:main.c        **** *  implementing a 3-button mouse. When the code is run, the mouse cursor moves 
   9:main.c        **** *  from the right to the left, and vice-versa.
  10:main.c        **** *
  11:main.c        **** *
  12:main.c        **** * Related Document:
  13:main.c        **** *  Device Class Definition for Human Interface Devices (HID)
  14:main.c        **** *  Firmware Specification- Version 1.11
  15:main.c        **** *
  16:main.c        **** ********************************************************************************
  17:main.c        **** * Copyright 2015, Cypress Semiconductor Corporation. All rights reserved.
  18:main.c        **** * This software is owned by Cypress Semiconductor Corporation and is protected
  19:main.c        **** * by and subject to worldwide patent and copyright laws and treaties.
  20:main.c        **** * Therefore, you may use this software only as provided in the license agreement
  21:main.c        **** * accompanying the software package from which you obtained this software.
  22:main.c        **** * CYPRESS AND ITS SUPPLIERS MAKE NO WARRANTY OF ANY KIND, EXPRESS OR IMPLIED,
  23:main.c        **** * WITH REGARD TO THIS SOFTWARE, INCLUDING, BUT NOT LIMITED TO, NONINFRINGEMENT,
  24:main.c        **** * IMPLIED WARRANTIES OF MERCHANTABILITY AND FITNESS FOR A PARTICULAR PURPOSE.
  25:main.c        **** *******************************************************************************/
  26:main.c        **** 
  27:main.c        **** #include <project.h>
  28:main.c        **** 
  29:main.c        **** #define USBFS_DEVICE        (0u)
  30:main.c        **** 
  31:main.c        **** #define MOUSE_ENDPOINT      (1u)
  32:main.c        **** #define MOUSE_DATA_LEN      (3u)
  33:main.c        **** #define CURSOR_STEP         (5u)
  34:main.c        **** #define CURSOR_STEP_POS     (1u)
  35:main.c        **** 
  36:main.c        **** /* Mouse packet array: button, X, Y */
  37:main.c        **** uint8 mouseData[MOUSE_DATA_LEN] = {0u, 0u, 0u};
  38:main.c        **** uint8 bSNstring[16u] = {0x0Eu, 0x03u, 'F', 0u, 'W', 0u, 'S', 0u, 'N', 0u, '0', 0u, '1', 0u};
  39:main.c        **** 
  40:main.c        **** 
  41:main.c        **** /*******************************************************************************
  42:main.c        **** * Function Name: main
  43:main.c        **** ********************************************************************************
  44:main.c        **** *
  45:main.c        **** * Summary:
  46:main.c        **** *  Wraps the OUT data coming from the host back to the host on a subsequent IN.
  47:main.c        **** *
  48:main.c        **** * Parameters:
  49:main.c        **** *  None.
  50:main.c        **** *
  51:main.c        **** * Return:
  52:main.c        **** *  None.
  53:main.c        **** *
  54:main.c        **** *******************************************************************************/
  55:main.c        **** int main()
  56:main.c        **** {
  55              		.loc 1 56 0
  56              		.cfi_startproc
  57              		@ args = 0, pretend = 0, frame = 8
  58              		@ frame_needed = 1, uses_anonymous_args = 0
ARM GAS  C:\Users\ILYNGK~1\AppData\Local\Temp\ccT22LWP.s 			page 3


  59 0000 80B5     		push	{r7, lr}
  60              		.cfi_def_cfa_offset 8
  61              		.cfi_offset 7, -8
  62              		.cfi_offset 14, -4
  63 0002 82B0     		sub	sp, sp, #8
  64              		.cfi_def_cfa_offset 16
  65 0004 00AF     		add	r7, sp, #0
  66              		.cfi_def_cfa_register 7
  57:main.c        ****     uint8 counter = 0u;
  67              		.loc 1 57 0
  68 0006 0023     		movs	r3, #0
  69 0008 FB71     		strb	r3, [r7, #7]
  58:main.c        **** 
  59:main.c        ****     CyGlobalIntEnable;
  70              		.loc 1 59 0
  71              	@ 59 "main.c" 1
  72 000a 62B6     		CPSIE   i
  73              	@ 0 "" 2
  60:main.c        **** 
  61:main.c        ****     /* Set user-defined Serial Number string descriptor. */
  62:main.c        ****     USBFS_SerialNumString(bSNstring);
  74              		.loc 1 62 0
  75              		.thumb
  76 000c 2048     		ldr	r0, .L9
  77 000e FFF7FEFF 		bl	USBFS_SerialNumString
  63:main.c        **** 
  64:main.c        ****     /* Start USBFS operation with 5-V operation. */
  65:main.c        ****     USBFS_Start(USBFS_DEVICE, USBFS_5V_OPERATION);
  78              		.loc 1 65 0
  79 0012 0020     		movs	r0, #0
  80 0014 0121     		movs	r1, #1
  81 0016 FFF7FEFF 		bl	USBFS_Start
  66:main.c        **** 
  67:main.c        ****     /* Wait for device to enumerate */
  68:main.c        ****     while (0u == USBFS_GetConfiguration())
  82              		.loc 1 68 0
  83 001a 00BF     		nop
  84              	.L2:
  85              		.loc 1 68 0 is_stmt 0 discriminator 1
  86 001c FFF7FEFF 		bl	USBFS_GetConfiguration
  87 0020 0346     		mov	r3, r0
  88 0022 002B     		cmp	r3, #0
  89 0024 FAD0     		beq	.L2
  69:main.c        ****     {
  70:main.c        ****     }
  71:main.c        **** 
  72:main.c        ****     /* Enumeration is done, load mouse endpoint. */
  73:main.c        ****     USBFS_LoadInEP(MOUSE_ENDPOINT, mouseData, MOUSE_DATA_LEN);
  90              		.loc 1 73 0 is_stmt 1
  91 0026 0120     		movs	r0, #1
  92 0028 1A49     		ldr	r1, .L9+4
  93 002a 0322     		movs	r2, #3
  94 002c FFF7FEFF 		bl	USBFS_LoadInEP
  95              	.L8:
  74:main.c        **** 
  75:main.c        ****     for(;;)
  76:main.c        ****     {
ARM GAS  C:\Users\ILYNGK~1\AppData\Local\Temp\ccT22LWP.s 			page 4


  77:main.c        ****         /* Wait for ACK before loading data. */
  78:main.c        ****         while (0u == USBFS_GetEPAckState(MOUSE_ENDPOINT))
  96              		.loc 1 78 0 discriminator 1
  97 0030 00BF     		nop
  98              	.L3:
  99 0032 0120     		movs	r0, #1
 100 0034 FFF7FEFF 		bl	USBFS_GetEPAckState
 101 0038 0346     		mov	r3, r0
 102 003a 002B     		cmp	r3, #0
 103 003c F9D0     		beq	.L3
  79:main.c        ****         {
  80:main.c        ****         }
  81:main.c        **** 
  82:main.c        ****         /* Load endpoint with data after ACK has been received. */
  83:main.c        ****         USBFS_LoadInEP(MOUSE_ENDPOINT, mouseData, MOUSE_DATA_LEN);
 104              		.loc 1 83 0
 105 003e 0120     		movs	r0, #1
 106 0040 1449     		ldr	r1, .L9+4
 107 0042 0322     		movs	r2, #3
 108 0044 FFF7FEFF 		bl	USBFS_LoadInEP
  84:main.c        **** 
  85:main.c        ****         counter++;
 109              		.loc 1 85 0
 110 0048 FB79     		ldrb	r3, [r7, #7]	@ zero_extendqisi2
 111 004a 0133     		adds	r3, r3, #1
 112 004c FB71     		strb	r3, [r7, #7]
  86:main.c        ****         if (counter == 128u)
 113              		.loc 1 86 0
 114 004e FB79     		ldrb	r3, [r7, #7]	@ zero_extendqisi2
 115 0050 802B     		cmp	r3, #128
 116 0052 03D1     		bne	.L4
  87:main.c        ****         {
  88:main.c        ****             /* Start moving mouse to the right. */
  89:main.c        ****             mouseData[CURSOR_STEP_POS] = CURSOR_STEP;
 117              		.loc 1 89 0
 118 0054 0F4B     		ldr	r3, .L9+4
 119 0056 0522     		movs	r2, #5
 120 0058 5A70     		strb	r2, [r3, #1]
 121 005a 18E0     		b	.L5
 122              	.L4:
  90:main.c        ****         }
  91:main.c        ****         /* When our counter hits 255. */					
  92:main.c        ****         else if (counter == 255u)
 123              		.loc 1 92 0
 124 005c FB79     		ldrb	r3, [r7, #7]	@ zero_extendqisi2
 125 005e FF2B     		cmp	r3, #255
 126 0060 03D1     		bne	.L6
  93:main.c        ****         {
  94:main.c        ****             /* Start moving mouse to left. */
  95:main.c        ****             mouseData[CURSOR_STEP_POS] = (uint8) -(int8) CURSOR_STEP;
 127              		.loc 1 95 0
 128 0062 0C4B     		ldr	r3, .L9+4
 129 0064 FB22     		movs	r2, #251
 130 0066 5A70     		strb	r2, [r3, #1]
 131 0068 11E0     		b	.L5
 132              	.L6:
  96:main.c        ****         }
ARM GAS  C:\Users\ILYNGK~1\AppData\Local\Temp\ccT22LWP.s 			page 5


  97:main.c        ****         else
  98:main.c        ****         {
  99:main.c        ****             if(KNAP_Read() == 0u)
 133              		.loc 1 99 0
 134 006a FFF7FEFF 		bl	KNAP_Read
 135 006e 0346     		mov	r3, r0
 136 0070 002B     		cmp	r3, #0
 137 0072 06D1     		bne	.L7
 100:main.c        ****             {
 101:main.c        ****                 PORE_Write(1u);
 138              		.loc 1 101 0
 139 0074 0120     		movs	r0, #1
 140 0076 FFF7FEFF 		bl	PORE_Write
 102:main.c        ****                 mouseData[0] = 0x01;
 141              		.loc 1 102 0
 142 007a 064B     		ldr	r3, .L9+4
 143 007c 0122     		movs	r2, #1
 144 007e 1A70     		strb	r2, [r3]
 145 0080 05E0     		b	.L5
 146              	.L7:
 103:main.c        ****             } else
 104:main.c        ****             {
 105:main.c        ****                 PORE_Write(0u);
 147              		.loc 1 105 0
 148 0082 0020     		movs	r0, #0
 149 0084 FFF7FEFF 		bl	PORE_Write
 106:main.c        ****                 mouseData[0] = 0x00;
 150              		.loc 1 106 0
 151 0088 024B     		ldr	r3, .L9+4
 152 008a 0022     		movs	r2, #0
 153 008c 1A70     		strb	r2, [r3]
 154              	.L5:
 107:main.c        ****             }
 108:main.c        ****             /* Do nothing. */					
 109:main.c        ****         }
 110:main.c        ****     }
 155              		.loc 1 110 0
 156 008e CFE7     		b	.L8
 157              	.L10:
 158              		.align	2
 159              	.L9:
 160 0090 00000000 		.word	bSNstring
 161 0094 00000000 		.word	mouseData
 162              		.cfi_endproc
 163              	.LFE63:
 164              		.size	main, .-main
 165              		.text
 166              	.Letext0:
 167              		.file 2 "c:\\program files (x86)\\cypress\\psoc creator\\4.0\\psoc creator\\import\\gnu\\arm\\4.9.
 168              		.file 3 "c:\\program files (x86)\\cypress\\psoc creator\\4.0\\psoc creator\\import\\gnu\\arm\\4.9.
 169              		.file 4 "Generated_Source\\PSoC5/cytypes.h"
 170              		.file 5 "Generated_Source\\PSoC5/core_cm3.h"